target datalayout = "e-m:e-p270:32:32-p271:32:32-p272:64:64-i64:64-i128:128-f80:128-n8:16:32:64-S128"
target triple = "x86_64-pc-linux-gnu"

; Function Attrs: inlinehint nounwind uwtable
define internal void @transpose_block_48_c(ptr noundef %0, i64 noundef %1, ptr noundef %2, i64 noundef %3, i32 noundef %4, i32 noundef %5) #8 {
  %7 = alloca ptr, align 8
  %8 = alloca i64, align 8
  %9 = alloca ptr, align 8
  %10 = alloca i64, align 8
  %11 = alloca i32, align 4
  %12 = alloca i32, align 4
  %13 = alloca i32, align 4
  %14 = alloca i32, align 4
  %15 = alloca i64, align 8
  %16 = alloca i64, align 8
  store ptr %0, ptr %7, align 8, !tbaa !74
  store i64 %1, ptr %8, align 8, !tbaa !90
  store ptr %2, ptr %9, align 8, !tbaa !74
  store i64 %3, ptr %10, align 8, !tbaa !90
  store i32 %4, ptr %11, align 4, !tbaa !14
  store i32 %5, ptr %12, align 4, !tbaa !14
  call void @llvm.lifetime.start.p0(i64 4, ptr %13) #9
  call void @llvm.lifetime.start.p0(i64 4, ptr %14) #9
  store i32 0, ptr %14, align 4, !tbaa !14
  br label %17

17:                                               ; preds = %152, %6
  %18 = load i32, ptr %14, align 4, !tbaa !14
  %19 = load i32, ptr %12, align 4, !tbaa !14
  %20 = icmp slt i32 %18, %19
  br i1 %20, label %21, label %160

21:                                               ; preds = %17
  store i32 0, ptr %13, align 4, !tbaa !14
  br label %22

22:                                               ; preds = %148, %21
  %23 = load i32, ptr %13, align 4, !tbaa !14
  %24 = load i32, ptr %11, align 4, !tbaa !14
  %25 = icmp slt i32 %23, %24
  br i1 %25, label %26, label %151

26:                                               ; preds = %22
  call void @llvm.lifetime.start.p0(i64 8, ptr %15) #9
  %27 = load ptr, ptr %7, align 8, !tbaa !74
  %28 = load i32, ptr %13, align 4, !tbaa !14
  %29 = sext i32 %28 to i64
  %30 = load i64, ptr %8, align 8, !tbaa !90
  %31 = mul nsw i64 %29, %30
  %32 = getelementptr inbounds i8, ptr %27, i64 %31
  %33 = getelementptr inbounds i8, ptr %32, i64 0
  %34 = load i8, ptr %33, align 1, !tbaa !91
  %35 = zext i8 %34 to i64
  %36 = shl i64 %35, 40
  %37 = load ptr, ptr %7, align 8, !tbaa !74
  %38 = load i32, ptr %13, align 4, !tbaa !14
  %39 = sext i32 %38 to i64
  %40 = load i64, ptr %8, align 8, !tbaa !90
  %41 = mul nsw i64 %39, %40
  %42 = getelementptr inbounds i8, ptr %37, i64 %41
  %43 = getelementptr inbounds i8, ptr %42, i64 1
  %44 = load i8, ptr %43, align 1, !tbaa !91
  %45 = zext i8 %44 to i64
  %46 = shl i64 %45, 32
  %47 = or i64 %36, %46
  %48 = load ptr, ptr %7, align 8, !tbaa !74
  %49 = load i32, ptr %13, align 4, !tbaa !14
  %50 = sext i32 %49 to i64
  %51 = load i64, ptr %8, align 8, !tbaa !90
  %52 = mul nsw i64 %50, %51
  %53 = getelementptr inbounds i8, ptr %48, i64 %52
  %54 = getelementptr inbounds i8, ptr %53, i64 2
  %55 = load i8, ptr %54, align 1, !tbaa !91
  %56 = zext i8 %55 to i64
  %57 = shl i64 %56, 24
  %58 = or i64 %47, %57
  %59 = load ptr, ptr %7, align 8, !tbaa !74
  %60 = load i32, ptr %13, align 4, !tbaa !14
  %61 = sext i32 %60 to i64
  %62 = load i64, ptr %8, align 8, !tbaa !90
  %63 = mul nsw i64 %61, %62
  %64 = getelementptr inbounds i8, ptr %59, i64 %63
  %65 = getelementptr inbounds i8, ptr %64, i64 3
  %66 = load i8, ptr %65, align 1, !tbaa !91
  %67 = zext i8 %66 to i64
  %68 = shl i64 %67, 16
  %69 = or i64 %58, %68
  %70 = load ptr, ptr %7, align 8, !tbaa !74
  %71 = load i32, ptr %13, align 4, !tbaa !14
  %72 = sext i32 %71 to i64
  %73 = load i64, ptr %8, align 8, !tbaa !90
  %74 = mul nsw i64 %72, %73
  %75 = getelementptr inbounds i8, ptr %70, i64 %74
  %76 = getelementptr inbounds i8, ptr %75, i64 4
  %77 = load i8, ptr %76, align 1, !tbaa !91
  %78 = zext i8 %77 to i64
  %79 = shl i64 %78, 8
  %80 = or i64 %69, %79
  %81 = load ptr, ptr %7, align 8, !tbaa !74
  %82 = load i32, ptr %13, align 4, !tbaa !14
  %83 = sext i32 %82 to i64
  %84 = load i64, ptr %8, align 8, !tbaa !90
  %85 = mul nsw i64 %83, %84
  %86 = getelementptr inbounds i8, ptr %81, i64 %85
  %87 = getelementptr inbounds i8, ptr %86, i64 5
  %88 = load i8, ptr %87, align 1, !tbaa !91
  %89 = zext i8 %88 to i64
  %90 = or i64 %80, %89
  store i64 %90, ptr %15, align 8, !tbaa !90
  br label %91

91:                                               ; preds = %26
  call void @llvm.lifetime.start.p0(i64 8, ptr %16) #9
  %92 = load i64, ptr %15, align 8, !tbaa !90
  store i64 %92, ptr %16, align 8, !tbaa !90
  %93 = load i64, ptr %16, align 8, !tbaa !90
  %94 = trunc i64 %93 to i8
  %95 = load ptr, ptr %9, align 8, !tbaa !74
  %96 = load i32, ptr %13, align 4, !tbaa !14
  %97 = mul nsw i32 6, %96
  %98 = sext i32 %97 to i64
  %99 = getelementptr inbounds i8, ptr %95, i64 %98
  %100 = getelementptr inbounds i8, ptr %99, i64 5
  store i8 %94, ptr %100, align 1, !tbaa !91
  %101 = load i64, ptr %16, align 8, !tbaa !90
  %102 = lshr i64 %101, 8
  %103 = trunc i64 %102 to i8
  %104 = load ptr, ptr %9, align 8, !tbaa !74
  %105 = load i32, ptr %13, align 4, !tbaa !14
  %106 = mul nsw i32 6, %105
  %107 = sext i32 %106 to i64
  %108 = getelementptr inbounds i8, ptr %104, i64 %107
  %109 = getelementptr inbounds i8, ptr %108, i64 4
  store i8 %103, ptr %109, align 1, !tbaa !91
  %110 = load i64, ptr %16, align 8, !tbaa !90
  %111 = lshr i64 %110, 16
  %112 = trunc i64 %111 to i8
  %113 = load ptr, ptr %9, align 8, !tbaa !74
  %114 = load i32, ptr %13, align 4, !tbaa !14
  %115 = mul nsw i32 6, %114
  %116 = sext i32 %115 to i64
  %117 = getelementptr inbounds i8, ptr %113, i64 %116
  %118 = getelementptr inbounds i8, ptr %117, i64 3
  store i8 %112, ptr %118, align 1, !tbaa !91
  %119 = load i64, ptr %16, align 8, !tbaa !90
  %120 = lshr i64 %119, 24
  %121 = trunc i64 %120 to i8
  %122 = load ptr, ptr %9, align 8, !tbaa !74
  %123 = load i32, ptr %13, align 4, !tbaa !14
  %124 = mul nsw i32 6, %123
  %125 = sext i32 %124 to i64
  %126 = getelementptr inbounds i8, ptr %122, i64 %125
  %127 = getelementptr inbounds i8, ptr %126, i64 2
  store i8 %121, ptr %127, align 1, !tbaa !91
  %128 = load i64, ptr %16, align 8, !tbaa !90
  %129 = lshr i64 %128, 32
  %130 = trunc i64 %129 to i8
  %131 = load ptr, ptr %9, align 8, !tbaa !74
  %132 = load i32, ptr %13, align 4, !tbaa !14
  %133 = mul nsw i32 6, %132
  %134 = sext i32 %133 to i64
  %135 = getelementptr inbounds i8, ptr %131, i64 %134
  %136 = getelementptr inbounds i8, ptr %135, i64 1
  store i8 %130, ptr %136, align 1, !tbaa !91
  %137 = load i64, ptr %16, align 8, !tbaa !90
  %138 = lshr i64 %137, 40
  %139 = trunc i64 %138 to i8
  %140 = load ptr, ptr %9, align 8, !tbaa !74
  %141 = load i32, ptr %13, align 4, !tbaa !14
  %142 = mul nsw i32 6, %141
  %143 = sext i32 %142 to i64
  %144 = getelementptr inbounds i8, ptr %140, i64 %143
  %145 = getelementptr inbounds i8, ptr %144, i64 0
  store i8 %139, ptr %145, align 1, !tbaa !91
  call void @llvm.lifetime.end.p0(i64 8, ptr %16) #9
  br label %146

146:                                              ; preds = %91
  br label %147

147:                                              ; preds = %146
  call void @llvm.lifetime.end.p0(i64 8, ptr %15) #9
  br label %148

148:                                              ; preds = %147
  %149 = load i32, ptr %13, align 4, !tbaa !14
  %150 = add nsw i32 %149, 1
  store i32 %150, ptr %13, align 4, !tbaa !14
  br label %22, !llvm.loop !102

151:                                              ; preds = %22
  br label %152

152:                                              ; preds = %151
  %153 = load i32, ptr %14, align 4, !tbaa !14
  %154 = add nsw i32 %153, 1
  store i32 %154, ptr %14, align 4, !tbaa !14
  %155 = load i64, ptr %10, align 8, !tbaa !90
  %156 = load ptr, ptr %9, align 8, !tbaa !74
  %157 = getelementptr inbounds i8, ptr %156, i64 %155
  store ptr %157, ptr %9, align 8, !tbaa !74
  %158 = load ptr, ptr %7, align 8, !tbaa !74
  %159 = getelementptr inbounds i8, ptr %158, i64 6
  store ptr %159, ptr %7, align 8, !tbaa !74
  br label %17, !llvm.loop !103

160:                                              ; preds = %17
  call void @llvm.lifetime.end.p0(i64 4, ptr %14) #9
  call void @llvm.lifetime.end.p0(i64 4, ptr %13) #9
  ret void
}