; Function Attrs: inlinehint nofree norecurse nosync nounwind memory(argmem: readwrite) uwtable
define internal void @transpose_block_48_c(ptr noundef readonly captures(none) %0, i64 noundef %1, ptr noundef writeonly captures(none) %2, i64 noundef %3, i32 noundef %4, i32 noundef %5) #6 {
  %7 = icmp sgt i32 %5, 0
  %8 = icmp sgt i32 %4, 0
  %or.cond = and i1 %7, %8
  br i1 %or.cond, label %.preheader.us.preheader, label %._crit_edge52

.preheader.us.preheader:                          ; preds = %6
  %wide.trip.count = zext nneg i32 %4 to i64
  br label %.preheader.us

.preheader.us:                                    ; preds = %.preheader.us.preheader, %._crit_edge.us
  %.051.us = phi ptr [ %32, %._crit_edge.us ], [ %0, %.preheader.us.preheader ]
  %.04550.us = phi ptr [ %31, %._crit_edge.us ], [ %2, %.preheader.us.preheader ]
  %.04649.us = phi i32 [ %30, %._crit_edge.us ], [ 0, %.preheader.us.preheader ]
  br label %9

9:                                                ; preds = %.preheader.us, %9
  %indvars.iv = phi i64 [ 0, %.preheader.us ], [ %indvars.iv.next, %9 ]
  %10 = mul nsw i64 %1, %indvars.iv
  %11 = getelementptr inbounds i8, ptr %.051.us, i64 %10
  %12 = load i8, ptr %11, align 1, !tbaa !75
  %13 = getelementptr inbounds nuw i8, ptr %11, i64 1
  %14 = load i8, ptr %13, align 1, !tbaa !75
  %15 = getelementptr inbounds nuw i8, ptr %11, i64 2
  %16 = load i8, ptr %15, align 1, !tbaa !75
  %17 = getelementptr inbounds nuw i8, ptr %11, i64 3
  %18 = load i8, ptr %17, align 1, !tbaa !75
  %19 = getelementptr inbounds nuw i8, ptr %11, i64 4
  %20 = load i8, ptr %19, align 1, !tbaa !75
  %21 = getelementptr inbounds nuw i8, ptr %11, i64 5
  %22 = load i8, ptr %21, align 1, !tbaa !75
  %23 = mul nuw nsw i64 %indvars.iv, 6
  %24 = getelementptr inbounds nuw i8, ptr %.04550.us, i64 %23
  %25 = getelementptr inbounds nuw i8, ptr %24, i64 5
  store i8 %22, ptr %25, align 1, !tbaa !75
  %26 = getelementptr inbounds nuw i8, ptr %24, i64 4
  store i8 %20, ptr %26, align 1, !tbaa !75
  %27 = getelementptr inbounds nuw i8, ptr %24, i64 3
  store i8 %18, ptr %27, align 1, !tbaa !75
  %28 = getelementptr inbounds nuw i8, ptr %24, i64 2
  store i8 %16, ptr %28, align 1, !tbaa !75
  %29 = getelementptr inbounds nuw i8, ptr %24, i64 1
  store i8 %14, ptr %29, align 1, !tbaa !75
  store i8 %12, ptr %24, align 1, !tbaa !75
  %indvars.iv.next = add nuw nsw i64 %indvars.iv, 1
  %exitcond.not = icmp eq i64 %indvars.iv.next, %wide.trip.count
  br i1 %exitcond.not, label %._crit_edge.us, label %9, !llvm.loop !86

._crit_edge.us:                                   ; preds = %9
  %30 = add nuw nsw i32 %.04649.us, 1
  %31 = getelementptr inbounds i8, ptr %.04550.us, i64 %3
  %32 = getelementptr inbounds nuw i8, ptr %.051.us, i64 6
  %exitcond55.not = icmp eq i32 %30, %5
  br i1 %exitcond55.not, label %._crit_edge52, label %.preheader.us, !llvm.loop !87

._crit_edge52:                                    ; preds = %._crit_edge.us, %6
  ret void
}